; Function Attrs: mustprogress nounwind uwtable
define dso_local noundef zeroext i1 @_ZN4llvm11MCAsmParser8parseEOLEv(ptr noundef nonnull align 8 dereferenceable(34) %0) local_unnamed_addr #0 align 2 {
  %2 = alloca %"class.llvm::Twine", align 8
  %3 = load ptr, ptr %0, align 8
  %4 = getelementptr inbounds i8, ptr %3, i64 40
  %5 = load ptr, ptr %4, align 8
  %6 = tail call noundef nonnull align 8 dereferenceable(144) ptr %5(ptr noundef nonnull align 8 dereferenceable(34) %0) #13
  %7 = getelementptr inbounds nuw i8, ptr %6, i64 8
  %8 = load ptr, ptr %7, align 8
  %9 = load i32, ptr %8, align 8
  %.not = icmp ne i32 %9, 9
  %10 = load ptr, ptr %0, align 8
  br i1 %.not, label %11, label %21

11:                                               ; preds = %1
  %12 = getelementptr inbounds i8, ptr %10, i64 40
  %13 = load ptr, ptr %12, align 8
  %14 = tail call noundef nonnull align 8 dereferenceable(144) ptr %13(ptr noundef nonnull align 8 dereferenceable(34) %0) #13
  %15 = getelementptr inbounds nuw i8, ptr %14, i64 8
  %16 = load ptr, ptr %15, align 8
  %17 = tail call ptr @_ZNK4llvm8AsmToken6getLocEv(ptr noundef nonnull align 8 dereferenceable(40) %16) #13
  %18 = getelementptr inbounds nuw i8, ptr %2, i64 32
  %19 = getelementptr inbounds nuw i8, ptr %2, i64 33
  store i8 1, ptr %19, align 1
  store ptr @.str.2, ptr %2, align 8
  store i8 3, ptr %18, align 8
  %20 = call noundef zeroext i1 @_ZN4llvm11MCAsmParser5ErrorENS_5SMLocERKNS_5TwineENS_7SMRangeE(ptr noundef nonnull align 8 dereferenceable(34) %0, ptr %17, ptr noundef nonnull align 8 dereferenceable(34) %2, ptr null, ptr null)
  br label %25

21:                                               ; preds = %1
  %22 = getelementptr inbounds i8, ptr %10, i64 184
  %23 = load ptr, ptr %22, align 8
  %24 = tail call noundef nonnull align 8 dereferenceable(40) ptr %23(ptr noundef nonnull align 8 dereferenceable(34) %0) #13
  br label %25

25:                                               ; preds = %21, %11
  ret i1 %.not
}